target datalayout = "e-m:e-p270:32:32-p271:32:32-p272:64:64-i64:64-i128:128-f80:128-n8:16:32:64-S128"
target triple = "x86_64-pc-linux-gnu"

%struct._wtap_module_reg = type { ptr, ptr }
%struct._GArray = type { ptr, i32 }

@wtap_module_count = external constant i32, align 4
@file_type_subtype_table_arr = internal global ptr null, align 8
@file_type_subtype_table = internal global ptr null, align 8
@type_subtype_name_map = internal global ptr null, align 8
@wtap_num_builtin_file_types_subtypes = internal global i32 0, align 4
@wtap_module_reg = external constant [0 x %struct._wtap_module_reg], align 8

; Function Attrs: null_pointer_is_valid sspstrong uwtable
define hidden void @wtap_init_file_type_subtypes() #0 {
  %1 = alloca i32, align 4
  br label %2

2:                                                ; preds = %0
  br label %3

3:                                                ; preds = %2
  %4 = load i32, ptr @wtap_module_count, align 4
  %5 = mul i32 %4, 2
  %6 = add i32 %5, 7
  %7 = call ptr @g_array_sized_new(i32 noundef 0, i32 noundef 1, i32 noundef 80, i32 noundef %6)
  store ptr %7, ptr @file_type_subtype_table_arr, align 8
  %8 = load ptr, ptr @file_type_subtype_table_arr, align 8
  %9 = getelementptr inbounds nuw %struct._GArray, ptr %8, i32 0, i32 0
  %10 = load ptr, ptr %9, align 8
  store ptr %10, ptr @file_type_subtype_table, align 8
  %11 = call ptr @g_hash_table_new_full(ptr noundef @g_str_hash, ptr noundef @g_str_equal, ptr noundef @g_free, ptr noundef @g_free)
  store ptr %11, ptr @type_subtype_name_map, align 8
  store i32 0, ptr @wtap_num_builtin_file_types_subtypes, align 4
  call void @register_pcapng()
  call void @register_pcap()
  call void @llvm.lifetime.start.p0(i64 4, ptr %1) #12
  store i32 0, ptr %1, align 4
  br label %12

12:                                               ; preds = %23, %3
  %13 = load i32, ptr %1, align 4
  %14 = load i32, ptr @wtap_module_count, align 4
  %15 = icmp ult i32 %13, %14
  br i1 %15, label %17, label %16

16:                                               ; preds = %12
  call void @llvm.lifetime.end.p0(i64 4, ptr %1) #12
  br label %26

17:                                               ; preds = %12
  %18 = load i32, ptr %1, align 4
  %19 = zext i32 %18 to i64
  %20 = getelementptr [0 x %struct._wtap_module_reg], ptr @wtap_module_reg, i64 0, i64 %19
  %21 = getelementptr inbounds nuw %struct._wtap_module_reg, ptr %20, i32 0, i32 1
  %22 = load ptr, ptr %21, align 8
  call void %22()
  br label %23

23:                                               ; preds = %17
  %24 = load i32, ptr %1, align 4
  %25 = add i32 %24, 1
  store i32 %25, ptr %1, align 4
  br label %12, !llvm.loop !19

26:                                               ; preds = %16
  %27 = load ptr, ptr @file_type_subtype_table_arr, align 8
  %28 = getelementptr inbounds nuw %struct._GArray, ptr %27, i32 0, i32 1
  %29 = load i32, ptr %28, align 8
  store i32 %29, ptr @wtap_num_builtin_file_types_subtypes, align 4
  ret void
}