; Function Attrs: null_pointer_is_valid sspstrong uwtable
define hidden void @wtap_init_file_type_subtypes() local_unnamed_addr #0 {
  %1 = load i32, ptr @wtap_module_count, align 4
  %2 = shl i32 %1, 1
  %3 = add i32 %2, 7
  %4 = tail call ptr @g_array_sized_new(i32 noundef 0, i32 noundef 1, i32 noundef 80, i32 noundef %3)
  store ptr %4, ptr @file_type_subtype_table_arr, align 8
  %5 = load ptr, ptr %4, align 8
  store ptr %5, ptr @file_type_subtype_table, align 8
  %6 = tail call ptr @g_hash_table_new_full(ptr noundef nonnull @g_str_hash, ptr noundef nonnull @g_str_equal, ptr noundef nonnull @g_free, ptr noundef nonnull @g_free)
  store ptr %6, ptr @type_subtype_name_map, align 8
  store i32 0, ptr @wtap_num_builtin_file_types_subtypes, align 4
  tail call void @register_pcapng()
  tail call void @register_pcap()
  %.not = icmp eq i32 %1, 0
  br i1 %.not, label %._crit_edge, label %.lr.ph.preheader

.lr.ph.preheader:                                 ; preds = %0
  %wide.trip.count = zext i32 %1 to i64
  br label %.lr.ph

._crit_edge:                                      ; preds = %.lr.ph, %0
  %7 = load ptr, ptr @file_type_subtype_table_arr, align 8
  %8 = getelementptr inbounds nuw i8, ptr %7, i64 8
  %9 = load i32, ptr %8, align 8
  store i32 %9, ptr @wtap_num_builtin_file_types_subtypes, align 4
  ret void

.lr.ph:                                           ; preds = %.lr.ph.preheader, %.lr.ph
  %indvars.iv = phi i64 [ 0, %.lr.ph.preheader ], [ %indvars.iv.next, %.lr.ph ]
  %10 = getelementptr [0 x %struct._wtap_module_reg], ptr @wtap_module_reg, i64 0, i64 %indvars.iv, i32 1
  %11 = load ptr, ptr %10, align 8
  tail call void %11()
  %indvars.iv.next = add nuw nsw i64 %indvars.iv, 1
  %exitcond.not = icmp eq i64 %indvars.iv.next, %wide.trip.count
  br i1 %exitcond.not, label %._crit_edge, label %.lr.ph, !llvm.loop !22
}